; Function Attrs: mustprogress uwtable
define internal noundef zeroext i1 @"_ZNSt17_Function_handlerIFvlEZN4pbrt10BasicScene15CreateAggregateERKNS1_13NamedTexturesERKSt3mapIiPN4pstd6vectorINS1_5LightENS7_3pmr21polymorphic_allocatorIS9_EEEESt4lessIiESaISt4pairIKiSE_EEERKS6_INSt7__cxx1112basic_stringIcSt11char_traitsIcESaIcEEENS1_6MediumESF_IST_ESaISH_IKST_SU_EEERKS6_IST_NS1_8MaterialESV_SaISH_ISW_S12_EEERKSt6vectorIS12_SaIS12_EEE3$_1E10_M_managerERSt9_Any_dataRKS1F_St18_Manager_operation"(ptr noundef nonnull align 8 captures(none) dereferenceable(16) %0, ptr noundef nonnull readonly align 8 captures(none) dereferenceable(16) %1, i32 noundef %2) #5 align 2 {
  switch i32 %2, label %"_ZNSt14_Function_base13_Base_managerIZN4pbrt10BasicScene15CreateAggregateERKNS1_13NamedTexturesERKSt3mapIiPN4pstd6vectorINS1_5LightENS7_3pmr21polymorphic_allocatorIS9_EEEESt4lessIiESaISt4pairIKiSE_EEERKS6_INSt7__cxx1112basic_stringIcSt11char_traitsIcESaIcEEENS1_6MediumESF_IST_ESaISH_IKST_SU_EEERKS6_IST_NS1_8MaterialESV_SaISH_ISW_S12_EEERKSt6vectorIS12_SaIS12_EEE3$_1E10_M_managerERSt9_Any_dataRKS1F_St18_Manager_operation.exit" [
    i32 0, label %4
    i32 1, label %5
    i32 3, label %8
    i32 2, label %6
  ]

4:                                                ; preds = %3
  store ptr @"_ZTIZN4pbrt10BasicScene15CreateAggregateERKNS_13NamedTexturesERKSt3mapIiPN4pstd6vectorINS_5LightENS5_3pmr21polymorphic_allocatorIS7_EEEESt4lessIiESaISt4pairIKiSC_EEERKS4_INSt7__cxx1112basic_stringIcSt11char_traitsIcESaIcEEENS_6MediumESD_ISR_ESaISF_IKSR_SS_EEERKS4_ISR_NS_8MaterialEST_SaISF_ISU_S10_EEERKSt6vectorIS10_SaIS10_EEE3$_1", ptr %0, align 8, !tbaa !1026
  br label %"_ZNSt14_Function_base13_Base_managerIZN4pbrt10BasicScene15CreateAggregateERKNS1_13NamedTexturesERKSt3mapIiPN4pstd6vectorINS1_5LightENS7_3pmr21polymorphic_allocatorIS9_EEEESt4lessIiESaISt4pairIKiSE_EEERKS6_INSt7__cxx1112basic_stringIcSt11char_traitsIcESaIcEEENS1_6MediumESF_IST_ESaISH_IKST_SU_EEERKS6_IST_NS1_8MaterialESV_SaISH_ISW_S12_EEERKSt6vectorIS12_SaIS12_EEE3$_1E10_M_managerERSt9_Any_dataRKS1F_St18_Manager_operation.exit"

5:                                                ; preds = %3
  %.val = load ptr, ptr %1, align 8, !tbaa !792
  store ptr %.val, ptr %0, align 8, !tbaa !792
  br label %"_ZNSt14_Function_base13_Base_managerIZN4pbrt10BasicScene15CreateAggregateERKNS1_13NamedTexturesERKSt3mapIiPN4pstd6vectorINS1_5LightENS7_3pmr21polymorphic_allocatorIS9_EEEESt4lessIiESaISt4pairIKiSE_EEERKS6_INSt7__cxx1112basic_stringIcSt11char_traitsIcESaIcEEENS1_6MediumESF_IST_ESaISH_IKST_SU_EEERKS6_IST_NS1_8MaterialESV_SaISH_ISW_S12_EEERKSt6vectorIS12_SaIS12_EEE3$_1E10_M_managerERSt9_Any_dataRKS1F_St18_Manager_operation.exit"

6:                                                ; preds = %3
  %.val6 = load ptr, ptr %1, align 8
  %7 = tail call noalias noundef nonnull dereferenceable(40) ptr @_Znwm(i64 noundef 40) #38
  tail call void @llvm.memcpy.p0.p0.i64(ptr noundef nonnull align 16 dereferenceable(40) %7, ptr noundef nonnull readonly align 8 dereferenceable(40) %.val6, i64 40, i1 false), !tbaa.struct !2063
  store ptr %7, ptr %0, align 8, !tbaa !792
  br label %"_ZNSt14_Function_base13_Base_managerIZN4pbrt10BasicScene15CreateAggregateERKNS1_13NamedTexturesERKSt3mapIiPN4pstd6vectorINS1_5LightENS7_3pmr21polymorphic_allocatorIS9_EEEESt4lessIiESaISt4pairIKiSE_EEERKS6_INSt7__cxx1112basic_stringIcSt11char_traitsIcESaIcEEENS1_6MediumESF_IST_ESaISH_IKST_SU_EEERKS6_IST_NS1_8MaterialESV_SaISH_ISW_S12_EEERKSt6vectorIS12_SaIS12_EEE3$_1E10_M_managerERSt9_Any_dataRKS1F_St18_Manager_operation.exit"

8:                                                ; preds = %3
  %.val7.i = load ptr, ptr %0, align 8, !tbaa !792
  %9 = icmp eq ptr %.val7.i, null
  br i1 %9, label %"_ZNSt14_Function_base13_Base_managerIZN4pbrt10BasicScene15CreateAggregateERKNS1_13NamedTexturesERKSt3mapIiPN4pstd6vectorINS1_5LightENS7_3pmr21polymorphic_allocatorIS9_EEEESt4lessIiESaISt4pairIKiSE_EEERKS6_INSt7__cxx1112basic_stringIcSt11char_traitsIcESaIcEEENS1_6MediumESF_IST_ESaISH_IKST_SU_EEERKS6_IST_NS1_8MaterialESV_SaISH_ISW_S12_EEERKSt6vectorIS12_SaIS12_EEE3$_1E10_M_managerERSt9_Any_dataRKS1F_St18_Manager_operation.exit", label %10

10:                                               ; preds = %8
  tail call void @_ZdlPvm(ptr noundef nonnull %.val7.i, i64 noundef 40) #36
  br label %"_ZNSt14_Function_base13_Base_managerIZN4pbrt10BasicScene15CreateAggregateERKNS1_13NamedTexturesERKSt3mapIiPN4pstd6vectorINS1_5LightENS7_3pmr21polymorphic_allocatorIS9_EEEESt4lessIiESaISt4pairIKiSE_EEERKS6_INSt7__cxx1112basic_stringIcSt11char_traitsIcESaIcEEENS1_6MediumESF_IST_ESaISH_IKST_SU_EEERKS6_IST_NS1_8MaterialESV_SaISH_ISW_S12_EEERKSt6vectorIS12_SaIS12_EEE3$_1E10_M_managerERSt9_Any_dataRKS1F_St18_Manager_operation.exit"

"_ZNSt14_Function_base13_Base_managerIZN4pbrt10BasicScene15CreateAggregateERKNS1_13NamedTexturesERKSt3mapIiPN4pstd6vectorINS1_5LightENS7_3pmr21polymorphic_allocatorIS9_EEEESt4lessIiESaISt4pairIKiSE_EEERKS6_INSt7__cxx1112basic_stringIcSt11char_traitsIcESaIcEEENS1_6MediumESF_IST_ESaISH_IKST_SU_EEERKS6_IST_NS1_8MaterialESV_SaISH_ISW_S12_EEERKSt6vectorIS12_SaIS12_EEE3$_1E10_M_managerERSt9_Any_dataRKS1F_St18_Manager_operation.exit": ; preds = %3, %10, %8, %6, %5, %4
  ret i1 false
}